target datalayout = "e-m:e-p270:32:32-p271:32:32-p272:64:64-i64:64-i128:128-f80:128-n8:16:32:64-S128"
target triple = "x86_64-pc-linux-gnu"

%struct.SDL_VideoDevice = type { ptr, ptr, ptr, ptr, ptr, ptr, ptr, ptr, ptr, ptr, ptr, ptr, ptr, ptr, ptr, ptr, ptr, ptr, ptr, ptr, ptr, ptr, ptr, ptr, ptr, ptr, ptr, ptr, ptr, ptr, ptr, ptr, ptr, ptr, ptr, ptr, ptr, ptr, ptr, ptr, ptr, ptr, ptr, ptr, ptr, ptr, ptr, ptr, ptr, ptr, ptr, ptr, ptr, ptr, ptr, ptr, ptr, ptr, ptr, ptr, ptr, ptr, ptr, ptr, ptr, ptr, ptr, ptr, ptr, ptr, ptr, ptr, ptr, ptr, ptr, ptr, ptr, ptr, ptr, ptr, ptr, ptr, ptr, ptr, ptr, ptr, ptr, ptr, ptr, ptr, ptr, ptr, ptr, ptr, ptr, ptr, ptr, i64, i8, i8, i8, ptr, i32, ptr, %struct.SDL_Rect, ptr, ptr, i32, ptr, ptr, ptr, ptr, i64, ptr, i8, i32, i32, %struct.anon.1, ptr, ptr, ptr, ptr, ptr, ptr, %struct.SDL_AtomicInt, %struct.SDL_AtomicInt, i8, %struct.anon.2, ptr, ptr, ptr, ptr, ptr }
%struct.SDL_Rect = type { i32, i32, i32, i32 }
%struct.anon.1 = type { i32, i32, i32, i32, i32, i32, i32, i32, i32, i32, i32, i32, i32, i32, i32, i32, i32, i32, i32, i32, i32, i32, i32, i32, i32, i32, i32, i32, i32, [256 x i8], ptr }
%struct.SDL_AtomicInt = type { i32 }
%struct.anon.2 = type { ptr, ptr, i32, [256 x i8], ptr }
%struct.SDL_VideoData = type { ptr, ptr, i32, ptr, i64, i32, ptr, i32, i64, i64, %struct.X11_ClipboardData, %struct.X11_ClipboardData, ptr, i64, %struct.X11_SettingsData, i8, %struct.anon.3, [256 x i32], i8, i8, i8, i64, i8, %struct.SDL_Point, i32, ptr, i32, i8, i32, %struct.anon.4, i8, i64, ptr, ptr, i8, i8, i8 }
%struct.X11_ClipboardData = type { ptr, ptr, ptr, i64, i32 }
%struct.X11_SettingsData = type { ptr }
%struct.anon.3 = type { i64, i64, i64, i64, i64, i64, i64, i64, i64, i64, i64, i64, i64, i64, i64, i64, i64, i64, i64, i64, i64, i64, i64, i64, i64, i64, i64, i64, i64, i64, i64, i64, i64, i64, i64, i64, i64, i64, i64, i64, i64, i64, i64, i64, i64, i64, i64, i64, i64, i64, i64, i64, i64 }
%struct.SDL_Point = type { i32, i32 }
%struct.anon.4 = type { ptr, i32, i32, i32, i16, i32, i32 }
%struct.XrmValue = type { i32, ptr }

@GetGlobalContentScale.scale_factor = internal global double 0.000000e+00, align 8
@.str.8 = private unnamed_addr constant [29 x i8] c"SDL_VIDEO_X11_SCALING_FACTOR\00", align 1
@X11_XrmInitialize = external global ptr, align 8
@X11_XResourceManagerString = external global ptr, align 8
@X11_XrmGetStringDatabase = external global ptr, align 8
@X11_XrmGetResource = external global ptr, align 8
@.str.9 = private unnamed_addr constant [8 x i8] c"Xft.dpi\00", align 1
@.str.10 = private unnamed_addr constant [7 x i8] c"String\00", align 1
@X11_XrmDestroyDatabase = external global ptr, align 8
@.str.11 = private unnamed_addr constant [24 x i8] c"Gdk/WindowScalingFactor\00", align 1
@.str.12 = private unnamed_addr constant [8 x i8] c"Xft/DPI\00", align 1
@.str.13 = private unnamed_addr constant [10 x i8] c"GDK_SCALE\00", align 1

; Function Attrs: nounwind uwtable
define internal float @GetGlobalContentScale(ptr noundef %0) #0 {
  %2 = alloca ptr, align 8
  %3 = alloca ptr, align 8
  %4 = alloca double, align 8
  %5 = alloca ptr, align 8
  %6 = alloca ptr, align 8
  %7 = alloca ptr, align 8
  %8 = alloca ptr, align 8
  %9 = alloca %struct.XrmValue, align 8
  %10 = alloca ptr, align 8
  %11 = alloca i32, align 4
  %12 = alloca i32, align 4
  %13 = alloca ptr, align 8
  store ptr %0, ptr %2, align 8
  %14 = load double, ptr @GetGlobalContentScale.scale_factor, align 8
  %15 = fcmp ole double %14, 0.000000e+00
  br i1 %15, label %16, label %122

16:                                               ; preds = %1
  call void @llvm.lifetime.start.p0(i64 8, ptr %3) #6
  %17 = call ptr @SDL_GetHint_REAL(ptr noundef @.str.8)
  store ptr %17, ptr %3, align 8
  %18 = load ptr, ptr %3, align 8
  %19 = icmp ne ptr %18, null
  br i1 %19, label %20, label %36

20:                                               ; preds = %16
  %21 = load ptr, ptr %3, align 8
  %22 = load i8, ptr %21, align 1
  %23 = sext i8 %22 to i32
  %24 = icmp ne i32 %23, 0
  br i1 %24, label %25, label %36

25:                                               ; preds = %20
  call void @llvm.lifetime.start.p0(i64 8, ptr %4) #6
  %26 = load ptr, ptr %3, align 8
  %27 = call double @SDL_atof_REAL(ptr noundef %26)
  store double %27, ptr %4, align 8
  %28 = load double, ptr %4, align 8
  %29 = fcmp oge double %28, 1.000000e+00
  br i1 %29, label %30, label %35

30:                                               ; preds = %25
  %31 = load double, ptr %4, align 8
  %32 = fcmp ole double %31, 1.000000e+01
  br i1 %32, label %33, label %35

33:                                               ; preds = %30
  %34 = load double, ptr %4, align 8
  store double %34, ptr @GetGlobalContentScale.scale_factor, align 8
  br label %35

35:                                               ; preds = %33, %30, %25
  call void @llvm.lifetime.end.p0(i64 8, ptr %4) #6
  br label %36

36:                                               ; preds = %35, %20, %16
  %37 = load double, ptr @GetGlobalContentScale.scale_factor, align 8
  %38 = fcmp ole double %37, 0.000000e+00
  br i1 %38, label %39, label %83

39:                                               ; preds = %36
  call void @llvm.lifetime.start.p0(i64 8, ptr %5) #6
  %40 = load ptr, ptr %2, align 8
  %41 = getelementptr inbounds nuw %struct.SDL_VideoDevice, ptr %40, i32 0, i32 128
  %42 = load ptr, ptr %41, align 8
  store ptr %42, ptr %5, align 8
  call void @llvm.lifetime.start.p0(i64 8, ptr %6) #6
  %43 = load ptr, ptr %5, align 8
  %44 = getelementptr inbounds nuw %struct.SDL_VideoData, ptr %43, i32 0, i32 0
  %45 = load ptr, ptr %44, align 8
  store ptr %45, ptr %6, align 8
  call void @llvm.lifetime.start.p0(i64 8, ptr %7) #6
  call void @llvm.lifetime.start.p0(i64 8, ptr %8) #6
  call void @llvm.lifetime.start.p0(i64 16, ptr %9) #6
  call void @llvm.lifetime.start.p0(i64 8, ptr %10) #6
  %46 = load ptr, ptr @X11_XrmInitialize, align 8
  call void %46()
  %47 = load ptr, ptr @X11_XResourceManagerString, align 8
  %48 = load ptr, ptr %6, align 8
  %49 = call ptr %47(ptr noundef %48)
  store ptr %49, ptr %7, align 8
  %50 = load ptr, ptr %7, align 8
  %51 = icmp ne ptr %50, null
  br i1 %51, label %52, label %82

52:                                               ; preds = %39
  %53 = load ptr, ptr @X11_XrmGetStringDatabase, align 8
  %54 = load ptr, ptr %7, align 8
  %55 = call ptr %53(ptr noundef %54)
  store ptr %55, ptr %8, align 8
  %56 = load ptr, ptr @X11_XrmGetResource, align 8
  %57 = load ptr, ptr %8, align 8
  %58 = call i32 %56(ptr noundef %57, ptr noundef @.str.9, ptr noundef @.str.10, ptr noundef %10, ptr noundef %9)
  %59 = icmp ne i32 %58, 0
  br i1 %59, label %60, label %79

60:                                               ; preds = %52
  %61 = getelementptr inbounds nuw %struct.XrmValue, ptr %9, i32 0, i32 1
  %62 = load ptr, ptr %61, align 8
  %63 = icmp ne ptr %62, null
  br i1 %63, label %64, label %78

64:                                               ; preds = %60
  %65 = load ptr, ptr %10, align 8
  %66 = icmp ne ptr %65, null
  br i1 %66, label %67, label %78

67:                                               ; preds = %64
  %68 = load ptr, ptr %10, align 8
  %69 = call i32 @SDL_strcmp_REAL(ptr noundef %68, ptr noundef @.str.10)
  %70 = icmp eq i32 %69, 0
  br i1 %70, label %71, label %78

71:                                               ; preds = %67
  call void @llvm.lifetime.start.p0(i64 4, ptr %11) #6
  %72 = getelementptr inbounds nuw %struct.XrmValue, ptr %9, i32 0, i32 1
  %73 = load ptr, ptr %72, align 8
  %74 = call i32 @SDL_atoi_REAL(ptr noundef %73)
  store i32 %74, ptr %11, align 4
  %75 = load i32, ptr %11, align 4
  %76 = sitofp i32 %75 to double
  %77 = fdiv double %76, 9.600000e+01
  store double %77, ptr @GetGlobalContentScale.scale_factor, align 8
  call void @llvm.lifetime.end.p0(i64 4, ptr %11) #6
  br label %78

78:                                               ; preds = %71, %67, %64, %60
  br label %79

79:                                               ; preds = %78, %52
  %80 = load ptr, ptr @X11_XrmDestroyDatabase, align 8
  %81 = load ptr, ptr %8, align 8
  call void %80(ptr noundef %81)
  br label %82

82:                                               ; preds = %79, %39
  call void @llvm.lifetime.end.p0(i64 8, ptr %10) #6
  call void @llvm.lifetime.end.p0(i64 16, ptr %9) #6
  call void @llvm.lifetime.end.p0(i64 8, ptr %8) #6
  call void @llvm.lifetime.end.p0(i64 8, ptr %7) #6
  call void @llvm.lifetime.end.p0(i64 8, ptr %6) #6
  call void @llvm.lifetime.end.p0(i64 8, ptr %5) #6
  br label %83

83:                                               ; preds = %82, %36
  %84 = load double, ptr @GetGlobalContentScale.scale_factor, align 8
  %85 = fcmp ole double %84, 0.000000e+00
  br i1 %85, label %86, label %105

86:                                               ; preds = %83
  %87 = load ptr, ptr %2, align 8
  %88 = call i32 @X11_GetXsettingsIntKey(ptr noundef %87, ptr noundef @.str.11, i32 noundef -1)
  %89 = sitofp i32 %88 to double
  store double %89, ptr @GetGlobalContentScale.scale_factor, align 8
  %90 = load double, ptr @GetGlobalContentScale.scale_factor, align 8
  %91 = fcmp ole double %90, 0.000000e+00
  br i1 %91, label %92, label %104

92:                                               ; preds = %86
  call void @llvm.lifetime.start.p0(i64 4, ptr %12) #6
  %93 = load ptr, ptr %2, align 8
  %94 = call i32 @X11_GetXsettingsIntKey(ptr noundef %93, ptr noundef @.str.12, i32 noundef -1)
  store i32 %94, ptr %12, align 4
  %95 = load i32, ptr %12, align 4
  %96 = icmp sgt i32 %95, 0
  br i1 %96, label %97, label %103

97:                                               ; preds = %92
  %98 = load i32, ptr %12, align 4
  %99 = sitofp i32 %98 to double
  %100 = fdiv double %99, 1.024000e+03
  store double %100, ptr @GetGlobalContentScale.scale_factor, align 8
  %101 = load double, ptr @GetGlobalContentScale.scale_factor, align 8
  %102 = fdiv double %101, 9.600000e+01
  store double %102, ptr @GetGlobalContentScale.scale_factor, align 8
  br label %103

103:                                              ; preds = %97, %92
  call void @llvm.lifetime.end.p0(i64 4, ptr %12) #6
  br label %104

104:                                              ; preds = %103, %86
  br label %105

105:                                              ; preds = %104, %83
  %106 = load double, ptr @GetGlobalContentScale.scale_factor, align 8
  %107 = fcmp ole double %106, 0.000000e+00
  br i1 %107, label %108, label %117

108:                                              ; preds = %105
  call void @llvm.lifetime.start.p0(i64 8, ptr %13) #6
  %109 = call ptr @SDL_getenv_REAL(ptr noundef @.str.13)
  store ptr %109, ptr %13, align 8
  %110 = load ptr, ptr %13, align 8
  %111 = icmp ne ptr %110, null
  br i1 %111, label %112, label %116

112:                                              ; preds = %108
  %113 = load ptr, ptr %13, align 8
  %114 = call i32 @SDL_atoi_REAL(ptr noundef %113)
  %115 = sitofp i32 %114 to double
  store double %115, ptr @GetGlobalContentScale.scale_factor, align 8
  br label %116

116:                                              ; preds = %112, %108
  call void @llvm.lifetime.end.p0(i64 8, ptr %13) #6
  br label %117

117:                                              ; preds = %116, %105
  %118 = load double, ptr @GetGlobalContentScale.scale_factor, align 8
  %119 = fcmp ole double %118, 0.000000e+00
  br i1 %119, label %120, label %121

120:                                              ; preds = %117
  store double 1.000000e+00, ptr @GetGlobalContentScale.scale_factor, align 8
  br label %121

121:                                              ; preds = %120, %117
  call void @llvm.lifetime.end.p0(i64 8, ptr %3) #6
  br label %122

122:                                              ; preds = %121, %1
  %123 = load double, ptr @GetGlobalContentScale.scale_factor, align 8
  %124 = fptrunc double %123 to float
  ret float %124
}