; Function Attrs: nounwind uwtable
define internal fastcc float @GetGlobalContentScale(ptr noundef %0) unnamed_addr #0 {
  %2 = alloca %struct.XrmValue, align 8
  %3 = alloca ptr, align 8
  %4 = load double, ptr @GetGlobalContentScale.scale_factor, align 8
  %5 = fcmp ugt double %4, 0.000000e+00
  br i1 %5, label %69, label %6

6:                                                ; preds = %1
  %7 = tail call ptr @SDL_GetHint_REAL(ptr noundef nonnull @.str.8) #8
  %.not = icmp eq ptr %7, null
  br i1 %.not, label %thread-pre-split, label %8

8:                                                ; preds = %6
  %9 = load i8, ptr %7, align 1
  %.not27 = icmp eq i8 %9, 0
  br i1 %.not27, label %thread-pre-split, label %10

10:                                               ; preds = %8
  %11 = tail call double @SDL_atof_REAL(ptr noundef nonnull %7) #8
  %12 = fcmp oge double %11, 1.000000e+00
  %13 = fcmp ole double %11, 1.000000e+01
  %or.cond = and i1 %12, %13
  br i1 %or.cond, label %.critedge, label %thread-pre-split

.critedge:                                        ; preds = %10
  store double %11, ptr @GetGlobalContentScale.scale_factor, align 8
  br label %44

thread-pre-split:                                 ; preds = %6, %8, %10
  %.pr = load double, ptr @GetGlobalContentScale.scale_factor, align 8
  %14 = fcmp ugt double %.pr, 0.000000e+00
  br i1 %14, label %44, label %15

15:                                               ; preds = %thread-pre-split
  %16 = getelementptr inbounds nuw i8, ptr %0, i64 1656
  %17 = load ptr, ptr %16, align 8
  %18 = load ptr, ptr %17, align 8
  call void @llvm.lifetime.start.p0(i64 16, ptr nonnull %2) #8
  call void @llvm.lifetime.start.p0(i64 8, ptr nonnull %3) #8
  %19 = load ptr, ptr @X11_XrmInitialize, align 8
  tail call void %19() #8
  %20 = load ptr, ptr @X11_XResourceManagerString, align 8
  %21 = tail call ptr %20(ptr noundef %18) #8
  %.not28 = icmp eq ptr %21, null
  br i1 %.not28, label %43, label %22

22:                                               ; preds = %15
  %23 = load ptr, ptr @X11_XrmGetStringDatabase, align 8
  %24 = tail call ptr %23(ptr noundef nonnull %21) #8
  %25 = load ptr, ptr @X11_XrmGetResource, align 8
  %26 = call i32 %25(ptr noundef %24, ptr noundef nonnull @.str.9, ptr noundef nonnull @.str.10, ptr noundef nonnull %3, ptr noundef nonnull %2) #8
  %.not29 = icmp eq i32 %26, 0
  br i1 %.not29, label %41, label %27

27:                                               ; preds = %22
  %28 = getelementptr inbounds nuw i8, ptr %2, i64 8
  %29 = load ptr, ptr %28, align 8
  %30 = icmp ne ptr %29, null
  %31 = load ptr, ptr %3, align 8
  %32 = icmp ne ptr %31, null
  %or.cond3 = select i1 %30, i1 %32, i1 false
  br i1 %or.cond3, label %33, label %41

33:                                               ; preds = %27
  %34 = call i32 @SDL_strcmp_REAL(ptr noundef nonnull %31, ptr noundef nonnull @.str.10) #8
  %35 = icmp eq i32 %34, 0
  br i1 %35, label %36, label %41

36:                                               ; preds = %33
  %37 = load ptr, ptr %28, align 8
  %38 = call i32 @SDL_atoi_REAL(ptr noundef %37) #8
  %39 = sitofp i32 %38 to double
  %40 = fdiv double %39, 9.600000e+01
  store double %40, ptr @GetGlobalContentScale.scale_factor, align 8
  br label %41

41:                                               ; preds = %27, %33, %36, %22
  %42 = load ptr, ptr @X11_XrmDestroyDatabase, align 8
  call void %42(ptr noundef %24) #8
  br label %43

43:                                               ; preds = %41, %15
  call void @llvm.lifetime.end.p0(i64 8, ptr nonnull %3) #8
  call void @llvm.lifetime.end.p0(i64 16, ptr nonnull %2) #8
  %.pre = load double, ptr @GetGlobalContentScale.scale_factor, align 8
  br label %44

44:                                               ; preds = %.critedge, %43, %thread-pre-split
  %45 = phi double [ %11, %.critedge ], [ %.pre, %43 ], [ %.pr, %thread-pre-split ]
  %46 = fcmp ugt double %45, 0.000000e+00
  br i1 %46, label %58, label %47

47:                                               ; preds = %44
  %48 = call i32 @X11_GetXsettingsIntKey(ptr noundef %0, ptr noundef nonnull @.str.11, i32 noundef -1) #8
  %49 = sitofp i32 %48 to double
  store double %49, ptr @GetGlobalContentScale.scale_factor, align 8
  %50 = icmp slt i32 %48, 1
  br i1 %50, label %51, label %58

51:                                               ; preds = %47
  %52 = call i32 @X11_GetXsettingsIntKey(ptr noundef %0, ptr noundef nonnull @.str.12, i32 noundef -1) #8
  %53 = icmp sgt i32 %52, 0
  br i1 %53, label %54, label %thread-pre-split31

54:                                               ; preds = %51
  %55 = uitofp nneg i32 %52 to double
  %56 = fmul double %55, 0x3F50000000000000
  %57 = fdiv double %56, 9.600000e+01
  store double %57, ptr @GetGlobalContentScale.scale_factor, align 8
  br label %58

thread-pre-split31:                               ; preds = %51
  %.pr32 = load double, ptr @GetGlobalContentScale.scale_factor, align 8
  br label %58

58:                                               ; preds = %thread-pre-split31, %54, %47, %44
  %59 = phi double [ %.pr32, %thread-pre-split31 ], [ %57, %54 ], [ %49, %47 ], [ %45, %44 ]
  %60 = fcmp ugt double %59, 0.000000e+00
  br i1 %60, label %thread-pre-split33, label %61

61:                                               ; preds = %58
  %62 = call ptr @SDL_getenv_REAL(ptr noundef nonnull @.str.13) #8
  %.not30 = icmp eq ptr %62, null
  br i1 %.not30, label %.thread-pre-split33_crit_edge, label %63

.thread-pre-split33_crit_edge:                    ; preds = %61
  %.pr34.pre = load double, ptr @GetGlobalContentScale.scale_factor, align 8
  br label %thread-pre-split33

63:                                               ; preds = %61
  %64 = call i32 @SDL_atoi_REAL(ptr noundef nonnull %62) #8
  %65 = sitofp i32 %64 to double
  store double %65, ptr @GetGlobalContentScale.scale_factor, align 8
  br label %thread-pre-split33

thread-pre-split33:                               ; preds = %58, %.thread-pre-split33_crit_edge, %63
  %66 = phi double [ %65, %63 ], [ %.pr34.pre, %.thread-pre-split33_crit_edge ], [ %59, %58 ]
  %67 = fcmp ugt double %66, 0.000000e+00
  br i1 %67, label %69, label %68

68:                                               ; preds = %thread-pre-split33
  store double 1.000000e+00, ptr @GetGlobalContentScale.scale_factor, align 8
  br label %69

69:                                               ; preds = %thread-pre-split33, %68, %1
  %70 = phi double [ %66, %thread-pre-split33 ], [ 1.000000e+00, %68 ], [ %4, %1 ]
  %71 = fptrunc double %70 to float
  ret float %71
}